; Function Attrs: mustprogress nofree norecurse nosync nounwind willreturn memory(readwrite, inaccessiblemem: none) uwtable
define void @_ZN5ImGui18SetWindowCollapsedEbi(i1 noundef zeroext %0, i32 noundef %1) local_unnamed_addr #34 {
  %3 = load ptr, ptr @GImGui, align 8, !tbaa !216
  %4 = getelementptr inbounds nuw i8, ptr %3, i64 5016
  %5 = load ptr, ptr %4, align 8, !tbaa !314
  %6 = zext i1 %0 to i8
  %.not.i = icmp eq i32 %1, 0
  %.phi.trans.insert.i = getelementptr inbounds nuw i8, ptr %5, i64 240
  %.pre.i = load i32, ptr %.phi.trans.insert.i, align 8
  br i1 %.not.i, label %._crit_edge.i, label %7

7:                                                ; preds = %2
  %8 = shl i32 %.pre.i, 8
  %9 = ashr i32 %8, 24
  %10 = and i32 %9, %1
  %11 = icmp eq i32 %10, 0
  br i1 %11, label %_ZN5ImGui18SetWindowCollapsedEP11ImGuiWindowbi.exit, label %._crit_edge.i

._crit_edge.i:                                    ; preds = %7, %2
  %12 = and i32 %.pre.i, -917505
  store i32 %12, ptr %.phi.trans.insert.i, align 8
  %13 = getelementptr inbounds nuw i8, ptr %5, i64 205
  store i8 %6, ptr %13, align 1, !tbaa !682
  br label %_ZN5ImGui18SetWindowCollapsedEP11ImGuiWindowbi.exit

_ZN5ImGui18SetWindowCollapsedEP11ImGuiWindowbi.exit: ; preds = %7, %._crit_edge.i
  ret void
}